target datalayout = "e-m:e-p270:32:32-p271:32:32-p272:64:64-i64:64-i128:128-f80:128-n8:16:32:64-S128"
target triple = "x86_64-pc-linux-gnu"

; Function Attrs: inlinehint mustprogress nounwind uwtable
define internal void @_ZN5faissL13fvec_madd_refEmPKffS1_Pf(i64 noundef %0, ptr noundef %1, float noundef %2, ptr noundef %3, ptr noundef %4) #4 {
  %6 = alloca i64, align 8
  %7 = alloca ptr, align 8
  %8 = alloca float, align 4
  %9 = alloca ptr, align 8
  %10 = alloca ptr, align 8
  %11 = alloca i64, align 8
  store i64 %0, ptr %6, align 8, !tbaa !9
  store ptr %1, ptr %7, align 8, !tbaa !4
  store float %2, ptr %8, align 4, !tbaa !11
  store ptr %3, ptr %9, align 8, !tbaa !4
  store ptr %4, ptr %10, align 8, !tbaa !4
  call void @llvm.lifetime.start.p0(i64 8, ptr %11) #13
  store i64 0, ptr %11, align 8, !tbaa !9
  br label %12

12:                                               ; preds = %31, %5
  %13 = load i64, ptr %11, align 8, !tbaa !9
  %14 = load i64, ptr %6, align 8, !tbaa !9
  %15 = icmp ult i64 %13, %14
  br i1 %15, label %17, label %16

16:                                               ; preds = %12
  call void @llvm.lifetime.end.p0(i64 8, ptr %11) #13
  br label %34

17:                                               ; preds = %12
  %18 = load ptr, ptr %7, align 8, !tbaa !4
  %19 = load i64, ptr %11, align 8, !tbaa !9
  %20 = getelementptr inbounds nuw float, ptr %18, i64 %19
  %21 = load float, ptr %20, align 4, !tbaa !11
  %22 = load float, ptr %8, align 4, !tbaa !11
  %23 = load ptr, ptr %9, align 8, !tbaa !4
  %24 = load i64, ptr %11, align 8, !tbaa !9
  %25 = getelementptr inbounds nuw float, ptr %23, i64 %24
  %26 = load float, ptr %25, align 4, !tbaa !11
  %27 = call float @llvm.fmuladd.f32(float %22, float %26, float %21)
  %28 = load ptr, ptr %10, align 8, !tbaa !4
  %29 = load i64, ptr %11, align 8, !tbaa !9
  %30 = getelementptr inbounds nuw float, ptr %28, i64 %29
  store float %27, ptr %30, align 4, !tbaa !11
  br label %31

31:                                               ; preds = %17
  %32 = load i64, ptr %11, align 8, !tbaa !9
  %33 = add i64 %32, 1
  store i64 %33, ptr %11, align 8, !tbaa !9
  br label %12, !llvm.loop !29

34:                                               ; preds = %16
  ret void
}

; Function Attrs: mustprogress uwtable
define void @_ZN5faiss9fvec_maddEmPKffS1_Pf(i64 noundef %0, ptr noundef %1, float noundef %2, ptr noundef %3, ptr noundef %4) #3 {
  %6 = alloca i64, align 8
  %7 = alloca ptr, align 8
  %8 = alloca float, align 4
  %9 = alloca ptr, align 8
  %10 = alloca ptr, align 8
  store i64 %0, ptr %6, align 8, !tbaa !9
  store ptr %1, ptr %7, align 8, !tbaa !4
  store float %2, ptr %8, align 4, !tbaa !11
  store ptr %3, ptr %9, align 8, !tbaa !4
  store ptr %4, ptr %10, align 8, !tbaa !4
  %11 = load i64, ptr %6, align 8, !tbaa !9
  %12 = load ptr, ptr %7, align 8, !tbaa !4
  %13 = load float, ptr %8, align 4, !tbaa !11
  %14 = load ptr, ptr %9, align 8, !tbaa !4
  %15 = load ptr, ptr %10, align 8, !tbaa !4
  call void @_ZN5faissL13fvec_madd_refEmPKffS1_Pf(i64 noundef %11, ptr noundef %12, float noundef %13, ptr noundef %14, ptr noundef %15)
  ret void
}