; Function Attrs: mustprogress nofree norecurse nosync nounwind memory(argmem: readwrite) uwtable
define void @_ZN5faiss9fvec_maddEmPKffS1_Pf(i64 noundef %0, ptr noundef readonly captures(none) %1, float noundef %2, ptr noundef readonly captures(none) %3, ptr noundef writeonly captures(none) %4) local_unnamed_addr #2 {
  %.not.i = icmp eq i64 %0, 0
  br i1 %.not.i, label %_ZN5faissL13fvec_madd_refEmPKffS1_Pf.exit, label %.lr.ph.i

.lr.ph.i:                                         ; preds = %5, %.lr.ph.i
  %.09.i = phi i64 [ %12, %.lr.ph.i ], [ 0, %5 ]
  %6 = getelementptr inbounds nuw float, ptr %1, i64 %.09.i
  %7 = load float, ptr %6, align 4, !tbaa !4
  %8 = getelementptr inbounds nuw float, ptr %3, i64 %.09.i
  %9 = load float, ptr %8, align 4, !tbaa !4
  %10 = tail call float @llvm.fmuladd.f32(float %2, float %9, float %7)
  %11 = getelementptr inbounds nuw float, ptr %4, i64 %.09.i
  store float %10, ptr %11, align 4, !tbaa !4
  %12 = add nuw i64 %.09.i, 1
  %exitcond.not.i = icmp eq i64 %12, %0
  br i1 %exitcond.not.i, label %_ZN5faissL13fvec_madd_refEmPKffS1_Pf.exit, label %.lr.ph.i, !llvm.loop !42

_ZN5faissL13fvec_madd_refEmPKffS1_Pf.exit:        ; preds = %.lr.ph.i, %5
  ret void
}